; Function Attrs: mustprogress uwtable
define void @_ZN7Imf_3_46Header10setVersionEi(ptr noundef nonnull align 8 dereferenceable(49) %0, i32 noundef %1) local_unnamed_addr #5 align 2 personality ptr @__gxx_personality_v0 {
  %3 = alloca i32, align 4
  %4 = alloca %"class.Imf_3_4::TypedAttribute.17", align 8
  store i32 %1, ptr %3, align 4, !tbaa !67
  %.not = icmp eq i32 %1, 1
  br i1 %.not, label %10, label %5

5:                                                ; preds = %2
  %6 = tail call ptr @__cxa_allocate_exception(i64 72) #29
  invoke void @_ZN7Iex_3_46ArgExcC1EPKc(ptr noundef nonnull align 8 dereferenceable(72) %6, ptr noundef nonnull @.str.32)
          to label %7 unwind label %8

7:                                                ; preds = %5
  tail call void @__cxa_throw(ptr nonnull %6, ptr nonnull @_ZTIN7Iex_3_46ArgExcE, ptr nonnull @_ZN7Iex_3_46ArgExcD1Ev) #30
  unreachable

8:                                                ; preds = %5
  %9 = landingpad { ptr, i32 }
          cleanup
  tail call void @__cxa_free_exception(ptr nonnull %6) #29
  br label %14

10:                                               ; preds = %2
  call void @llvm.lifetime.start.p0(i64 16, ptr nonnull %4) #29
  call void @_ZN7Imf_3_414TypedAttributeIiEC1ERKi(ptr noundef nonnull align 8 dereferenceable(12) %4, ptr noundef nonnull align 4 dereferenceable(4) %3)
  invoke void @_ZN7Imf_3_46Header6insertEPKcRKNS_9AttributeE(ptr noundef nonnull align 8 dereferenceable(49) %0, ptr noundef nonnull @.str.33, ptr noundef nonnull align 8 dereferenceable(8) %4)
          to label %11 unwind label %12

11:                                               ; preds = %10
  call void @_ZN7Imf_3_414TypedAttributeIiED1Ev(ptr noundef nonnull align 8 dereferenceable(12) %4) #29
  call void @llvm.lifetime.end.p0(i64 16, ptr nonnull %4) #29
  ret void

12:                                               ; preds = %10
  %13 = landingpad { ptr, i32 }
          cleanup
  call void @_ZN7Imf_3_414TypedAttributeIiED1Ev(ptr noundef nonnull align 8 dereferenceable(12) %4) #29
  call void @llvm.lifetime.end.p0(i64 16, ptr nonnull %4) #29
  br label %14

14:                                               ; preds = %12, %8
  %.pn = phi { ptr, i32 } [ %9, %8 ], [ %13, %12 ]
  resume { ptr, i32 } %.pn
}